target datalayout = "e-m:e-p270:32:32-p271:32:32-p272:64:64-i64:64-i128:128-f80:128-n8:16:32:64-S128"
target triple = "x86_64-pc-linux-gnu"

%struct.zip64_data_desc = type { [4 x i8], [4 x i8], [8 x i8], [8 x i8], [1 x i8] }
%struct.zip_data_desc = type { [4 x i8], [4 x i8], [4 x i8], [4 x i8], [1 x i8] }

@zip_offset = internal global i64 0, align 8

; Function Attrs: nounwind uwtable
define internal void @copy_le64(ptr noundef %0, i64 noundef %1) #0 {
  %3 = alloca ptr, align 8
  %4 = alloca i64, align 8
  store ptr %0, ptr %3, align 8, !tbaa !28
  store i64 %1, ptr %4, align 8, !tbaa !35
  %5 = load i64, ptr %4, align 8, !tbaa !35
  %6 = and i64 255, %5
  %7 = trunc i64 %6 to i8
  %8 = load ptr, ptr %3, align 8, !tbaa !28
  %9 = getelementptr inbounds i8, ptr %8, i64 0
  store i8 %7, ptr %9, align 1, !tbaa !67
  %10 = load i64, ptr %4, align 8, !tbaa !35
  %11 = lshr i64 %10, 8
  %12 = and i64 255, %11
  %13 = trunc i64 %12 to i8
  %14 = load ptr, ptr %3, align 8, !tbaa !28
  %15 = getelementptr inbounds i8, ptr %14, i64 1
  store i8 %13, ptr %15, align 1, !tbaa !67
  %16 = load i64, ptr %4, align 8, !tbaa !35
  %17 = lshr i64 %16, 16
  %18 = and i64 255, %17
  %19 = trunc i64 %18 to i8
  %20 = load ptr, ptr %3, align 8, !tbaa !28
  %21 = getelementptr inbounds i8, ptr %20, i64 2
  store i8 %19, ptr %21, align 1, !tbaa !67
  %22 = load i64, ptr %4, align 8, !tbaa !35
  %23 = lshr i64 %22, 24
  %24 = and i64 255, %23
  %25 = trunc i64 %24 to i8
  %26 = load ptr, ptr %3, align 8, !tbaa !28
  %27 = getelementptr inbounds i8, ptr %26, i64 3
  store i8 %25, ptr %27, align 1, !tbaa !67
  %28 = load i64, ptr %4, align 8, !tbaa !35
  %29 = lshr i64 %28, 32
  %30 = and i64 255, %29
  %31 = trunc i64 %30 to i8
  %32 = load ptr, ptr %3, align 8, !tbaa !28
  %33 = getelementptr inbounds i8, ptr %32, i64 4
  store i8 %31, ptr %33, align 1, !tbaa !67
  %34 = load i64, ptr %4, align 8, !tbaa !35
  %35 = lshr i64 %34, 40
  %36 = and i64 255, %35
  %37 = trunc i64 %36 to i8
  %38 = load ptr, ptr %3, align 8, !tbaa !28
  %39 = getelementptr inbounds i8, ptr %38, i64 5
  store i8 %37, ptr %39, align 1, !tbaa !67
  %40 = load i64, ptr %4, align 8, !tbaa !35
  %41 = lshr i64 %40, 48
  %42 = and i64 255, %41
  %43 = trunc i64 %42 to i8
  %44 = load ptr, ptr %3, align 8, !tbaa !28
  %45 = getelementptr inbounds i8, ptr %44, i64 6
  store i8 %43, ptr %45, align 1, !tbaa !67
  %46 = load i64, ptr %4, align 8, !tbaa !35
  %47 = lshr i64 %46, 56
  %48 = and i64 255, %47
  %49 = trunc i64 %48 to i8
  %50 = load ptr, ptr %3, align 8, !tbaa !28
  %51 = getelementptr inbounds i8, ptr %50, i64 7
  store i8 %49, ptr %51, align 1, !tbaa !67
  ret void
}

; Function Attrs: nounwind uwtable
define internal void @copy_le32(ptr noundef %0, i32 noundef %1) #0 {
  %3 = alloca ptr, align 8
  %4 = alloca i32, align 4
  store ptr %0, ptr %3, align 8, !tbaa !28
  store i32 %1, ptr %4, align 4, !tbaa !11
  %5 = load i32, ptr %4, align 4, !tbaa !11
  %6 = and i32 255, %5
  %7 = trunc i32 %6 to i8
  %8 = load ptr, ptr %3, align 8, !tbaa !28
  %9 = getelementptr inbounds i8, ptr %8, i64 0
  store i8 %7, ptr %9, align 1, !tbaa !67
  %10 = load i32, ptr %4, align 4, !tbaa !11
  %11 = lshr i32 %10, 8
  %12 = and i32 255, %11
  %13 = trunc i32 %12 to i8
  %14 = load ptr, ptr %3, align 8, !tbaa !28
  %15 = getelementptr inbounds i8, ptr %14, i64 1
  store i8 %13, ptr %15, align 1, !tbaa !67
  %16 = load i32, ptr %4, align 4, !tbaa !11
  %17 = lshr i32 %16, 16
  %18 = and i32 255, %17
  %19 = trunc i32 %18 to i8
  %20 = load ptr, ptr %3, align 8, !tbaa !28
  %21 = getelementptr inbounds i8, ptr %20, i64 2
  store i8 %19, ptr %21, align 1, !tbaa !67
  %22 = load i32, ptr %4, align 4, !tbaa !11
  %23 = lshr i32 %22, 24
  %24 = and i32 255, %23
  %25 = trunc i32 %24 to i8
  %26 = load ptr, ptr %3, align 8, !tbaa !28
  %27 = getelementptr inbounds i8, ptr %26, i64 3
  store i8 %25, ptr %27, align 1, !tbaa !67
  ret void
}

; Function Attrs: nounwind uwtable
define internal void @write_zip_data_desc(i64 noundef %0, i64 noundef %1, i64 noundef %2) #0 {
  %4 = alloca i64, align 8
  %5 = alloca i64, align 8
  %6 = alloca i64, align 8
  %7 = alloca %struct.zip64_data_desc, align 1
  %8 = alloca %struct.zip_data_desc, align 1
  store i64 %0, ptr %4, align 8, !tbaa !35
  store i64 %1, ptr %5, align 8, !tbaa !35
  store i64 %2, ptr %6, align 8, !tbaa !35
  %9 = load i64, ptr %4, align 8, !tbaa !35
  %10 = icmp uge i64 %9, 4294967295
  br i1 %10, label %14, label %11

11:                                               ; preds = %3
  %12 = load i64, ptr %5, align 8, !tbaa !35
  %13 = icmp uge i64 %12, 4294967295
  br i1 %13, label %14, label %29

14:                                               ; preds = %11, %3
  call void @llvm.lifetime.start.p0(i64 25, ptr %7) #6
  %15 = getelementptr inbounds nuw %struct.zip64_data_desc, ptr %7, i32 0, i32 0
  %16 = getelementptr inbounds [4 x i8], ptr %15, i64 0, i64 0
  call void @copy_le32(ptr noundef %16, i32 noundef 134695760)
  %17 = getelementptr inbounds nuw %struct.zip64_data_desc, ptr %7, i32 0, i32 1
  %18 = getelementptr inbounds [4 x i8], ptr %17, i64 0, i64 0
  %19 = load i64, ptr %6, align 8, !tbaa !35
  %20 = trunc i64 %19 to i32
  call void @copy_le32(ptr noundef %18, i32 noundef %20)
  %21 = getelementptr inbounds nuw %struct.zip64_data_desc, ptr %7, i32 0, i32 2
  %22 = getelementptr inbounds [8 x i8], ptr %21, i64 0, i64 0
  %23 = load i64, ptr %5, align 8, !tbaa !35
  call void @copy_le64(ptr noundef %22, i64 noundef %23)
  %24 = getelementptr inbounds nuw %struct.zip64_data_desc, ptr %7, i32 0, i32 3
  %25 = getelementptr inbounds [8 x i8], ptr %24, i64 0, i64 0
  %26 = load i64, ptr %4, align 8, !tbaa !35
  call void @copy_le64(ptr noundef %25, i64 noundef %26)
  call void @write_or_die(i32 noundef 1, ptr noundef %7, i64 noundef 24)
  %27 = load i64, ptr @zip_offset, align 8, !tbaa !35
  %28 = add i64 %27, 24
  store i64 %28, ptr @zip_offset, align 8, !tbaa !35
  call void @llvm.lifetime.end.p0(i64 25, ptr %7) #6
  br label %46

29:                                               ; preds = %11
  call void @llvm.lifetime.start.p0(i64 17, ptr %8) #6
  %30 = getelementptr inbounds nuw %struct.zip_data_desc, ptr %8, i32 0, i32 0
  %31 = getelementptr inbounds [4 x i8], ptr %30, i64 0, i64 0
  call void @copy_le32(ptr noundef %31, i32 noundef 134695760)
  %32 = getelementptr inbounds nuw %struct.zip_data_desc, ptr %8, i32 0, i32 1
  %33 = getelementptr inbounds [4 x i8], ptr %32, i64 0, i64 0
  %34 = load i64, ptr %6, align 8, !tbaa !35
  %35 = trunc i64 %34 to i32
  call void @copy_le32(ptr noundef %33, i32 noundef %35)
  %36 = getelementptr inbounds nuw %struct.zip_data_desc, ptr %8, i32 0, i32 2
  %37 = getelementptr inbounds [4 x i8], ptr %36, i64 0, i64 0
  %38 = load i64, ptr %5, align 8, !tbaa !35
  %39 = trunc i64 %38 to i32
  call void @copy_le32(ptr noundef %37, i32 noundef %39)
  %40 = getelementptr inbounds nuw %struct.zip_data_desc, ptr %8, i32 0, i32 3
  %41 = getelementptr inbounds [4 x i8], ptr %40, i64 0, i64 0
  %42 = load i64, ptr %4, align 8, !tbaa !35
  %43 = trunc i64 %42 to i32
  call void @copy_le32(ptr noundef %41, i32 noundef %43)
  call void @write_or_die(i32 noundef 1, ptr noundef %8, i64 noundef 16)
  %44 = load i64, ptr @zip_offset, align 8, !tbaa !35
  %45 = add i64 %44, 16
  store i64 %45, ptr @zip_offset, align 8, !tbaa !35
  call void @llvm.lifetime.end.p0(i64 17, ptr %8) #6
  br label %46

46:                                               ; preds = %29, %14
  ret void
}