; Function Attrs: nounwind uwtable
define internal fastcc void @write_zip_data_desc(i64 noundef %0, i64 noundef %1, i64 noundef %2) unnamed_addr #0 {
  %4 = alloca %struct.zip64_data_desc, align 1
  %5 = alloca %struct.zip_data_desc, align 1
  %6 = icmp ugt i64 %0, 4294967294
  %7 = icmp ugt i64 %1, 4294967294
  %or.cond = or i1 %6, %7
  %8 = trunc i64 %2 to i8
  %9 = lshr i64 %2, 8
  %10 = trunc i64 %9 to i8
  %11 = lshr i64 %2, 16
  %12 = trunc i64 %11 to i8
  %13 = lshr i64 %2, 24
  %14 = trunc i64 %13 to i8
  %15 = trunc i64 %1 to i8
  %16 = lshr i64 %1, 8
  %17 = trunc i64 %16 to i8
  %18 = lshr i64 %1, 16
  %19 = trunc i64 %18 to i8
  br i1 %or.cond, label %20, label %71

20:                                               ; preds = %3
  call void @llvm.lifetime.start.p0(i64 25, ptr nonnull %4) #9
  store i8 80, ptr %4, align 1, !tbaa !31
  %21 = getelementptr inbounds nuw i8, ptr %4, i64 1
  store i8 75, ptr %21, align 1, !tbaa !31
  %22 = getelementptr inbounds nuw i8, ptr %4, i64 2
  store i8 7, ptr %22, align 1, !tbaa !31
  %23 = getelementptr inbounds nuw i8, ptr %4, i64 3
  store i8 8, ptr %23, align 1, !tbaa !31
  %24 = getelementptr inbounds nuw i8, ptr %4, i64 4
  store i8 %8, ptr %24, align 1, !tbaa !31
  %25 = getelementptr inbounds nuw i8, ptr %4, i64 5
  store i8 %10, ptr %25, align 1, !tbaa !31
  %26 = getelementptr inbounds nuw i8, ptr %4, i64 6
  store i8 %12, ptr %26, align 1, !tbaa !31
  %27 = getelementptr inbounds nuw i8, ptr %4, i64 7
  store i8 %14, ptr %27, align 1, !tbaa !31
  %28 = getelementptr inbounds nuw i8, ptr %4, i64 8
  store i8 %15, ptr %28, align 1, !tbaa !31
  %29 = getelementptr inbounds nuw i8, ptr %4, i64 9
  store i8 %17, ptr %29, align 1, !tbaa !31
  %30 = getelementptr inbounds nuw i8, ptr %4, i64 10
  store i8 %19, ptr %30, align 1, !tbaa !31
  %31 = lshr i64 %1, 24
  %32 = trunc i64 %31 to i8
  %33 = getelementptr inbounds nuw i8, ptr %4, i64 11
  store i8 %32, ptr %33, align 1, !tbaa !31
  %34 = lshr i64 %1, 32
  %35 = trunc i64 %34 to i8
  %36 = getelementptr inbounds nuw i8, ptr %4, i64 12
  store i8 %35, ptr %36, align 1, !tbaa !31
  %37 = lshr i64 %1, 40
  %38 = trunc i64 %37 to i8
  %39 = getelementptr inbounds nuw i8, ptr %4, i64 13
  store i8 %38, ptr %39, align 1, !tbaa !31
  %40 = lshr i64 %1, 48
  %41 = trunc i64 %40 to i8
  %42 = getelementptr inbounds nuw i8, ptr %4, i64 14
  store i8 %41, ptr %42, align 1, !tbaa !31
  %43 = lshr i64 %1, 56
  %44 = trunc nuw i64 %43 to i8
  %45 = getelementptr inbounds nuw i8, ptr %4, i64 15
  store i8 %44, ptr %45, align 1, !tbaa !31
  %46 = getelementptr inbounds nuw i8, ptr %4, i64 16
  %47 = trunc i64 %0 to i8
  store i8 %47, ptr %46, align 1, !tbaa !31
  %48 = lshr i64 %0, 8
  %49 = trunc i64 %48 to i8
  %50 = getelementptr inbounds nuw i8, ptr %4, i64 17
  store i8 %49, ptr %50, align 1, !tbaa !31
  %51 = lshr i64 %0, 16
  %52 = trunc i64 %51 to i8
  %53 = getelementptr inbounds nuw i8, ptr %4, i64 18
  store i8 %52, ptr %53, align 1, !tbaa !31
  %54 = lshr i64 %0, 24
  %55 = trunc i64 %54 to i8
  %56 = getelementptr inbounds nuw i8, ptr %4, i64 19
  store i8 %55, ptr %56, align 1, !tbaa !31
  %57 = lshr i64 %0, 32
  %58 = trunc i64 %57 to i8
  %59 = getelementptr inbounds nuw i8, ptr %4, i64 20
  store i8 %58, ptr %59, align 1, !tbaa !31
  %60 = lshr i64 %0, 40
  %61 = trunc i64 %60 to i8
  %62 = getelementptr inbounds nuw i8, ptr %4, i64 21
  store i8 %61, ptr %62, align 1, !tbaa !31
  %63 = lshr i64 %0, 48
  %64 = trunc i64 %63 to i8
  %65 = getelementptr inbounds nuw i8, ptr %4, i64 22
  store i8 %64, ptr %65, align 1, !tbaa !31
  %66 = lshr i64 %0, 56
  %67 = trunc nuw i64 %66 to i8
  %68 = getelementptr inbounds nuw i8, ptr %4, i64 23
  store i8 %67, ptr %68, align 1, !tbaa !31
  call void @write_or_die(i32 noundef 1, ptr noundef nonnull %4, i64 noundef 24) #9
  %69 = load i64, ptr @zip_offset, align 8, !tbaa !9
  %70 = add i64 %69, 24
  call void @llvm.lifetime.end.p0(i64 25, ptr nonnull %4) #9
  br label %98

71:                                               ; preds = %3
  call void @llvm.lifetime.start.p0(i64 17, ptr nonnull %5) #9
  store i8 80, ptr %5, align 1, !tbaa !31
  %72 = getelementptr inbounds nuw i8, ptr %5, i64 1
  store i8 75, ptr %72, align 1, !tbaa !31
  %73 = getelementptr inbounds nuw i8, ptr %5, i64 2
  store i8 7, ptr %73, align 1, !tbaa !31
  %74 = getelementptr inbounds nuw i8, ptr %5, i64 3
  store i8 8, ptr %74, align 1, !tbaa !31
  %75 = getelementptr inbounds nuw i8, ptr %5, i64 4
  store i8 %8, ptr %75, align 1, !tbaa !31
  %76 = getelementptr inbounds nuw i8, ptr %5, i64 5
  store i8 %10, ptr %76, align 1, !tbaa !31
  %77 = getelementptr inbounds nuw i8, ptr %5, i64 6
  store i8 %12, ptr %77, align 1, !tbaa !31
  %78 = getelementptr inbounds nuw i8, ptr %5, i64 7
  store i8 %14, ptr %78, align 1, !tbaa !31
  %79 = getelementptr inbounds nuw i8, ptr %5, i64 8
  store i8 %15, ptr %79, align 1, !tbaa !31
  %80 = getelementptr inbounds nuw i8, ptr %5, i64 9
  store i8 %17, ptr %80, align 1, !tbaa !31
  %81 = getelementptr inbounds nuw i8, ptr %5, i64 10
  store i8 %19, ptr %81, align 1, !tbaa !31
  %82 = lshr i64 %1, 24
  %83 = trunc nuw i64 %82 to i8
  %84 = getelementptr inbounds nuw i8, ptr %5, i64 11
  store i8 %83, ptr %84, align 1, !tbaa !31
  %85 = getelementptr inbounds nuw i8, ptr %5, i64 12
  %86 = trunc i64 %0 to i8
  store i8 %86, ptr %85, align 1, !tbaa !31
  %87 = lshr i64 %0, 8
  %88 = trunc i64 %87 to i8
  %89 = getelementptr inbounds nuw i8, ptr %5, i64 13
  store i8 %88, ptr %89, align 1, !tbaa !31
  %90 = lshr i64 %0, 16
  %91 = trunc i64 %90 to i8
  %92 = getelementptr inbounds nuw i8, ptr %5, i64 14
  store i8 %91, ptr %92, align 1, !tbaa !31
  %93 = lshr i64 %0, 24
  %94 = trunc nuw i64 %93 to i8
  %95 = getelementptr inbounds nuw i8, ptr %5, i64 15
  store i8 %94, ptr %95, align 1, !tbaa !31
  call void @write_or_die(i32 noundef 1, ptr noundef nonnull %5, i64 noundef 16) #9
  %96 = load i64, ptr @zip_offset, align 8, !tbaa !9
  %97 = add i64 %96, 16
  call void @llvm.lifetime.end.p0(i64 17, ptr nonnull %5) #9
  br label %98

98:                                               ; preds = %71, %20
  %.sink = phi i64 [ %70, %20 ], [ %97, %71 ]
  store i64 %.sink, ptr @zip_offset, align 8, !tbaa !9
  ret void
}